; Function Attrs: mustprogress nofree norecurse nosync nounwind willreturn memory(none) uwtable
define internal i32 @get_log_bin_sign(float noundef %0, i32 noundef %1) #5 {
  %3 = sdiv i32 %1, 2
  %4 = fcmp nsz ogt float %0, 0.000000e+00
  %5 = tail call nsz float @llvm.fabs.f32(float %0)
  %6 = tail call nsz float @llvm.log10.f32(float %5)
  %7 = fdiv nsz float %6, 6.000000e+00
  %8 = fadd nsz float %7, 1.000000e+00
  %9 = fcmp nsz ogt float %8, 0.000000e+00
  %10 = select nsz i1 %9, float %8, float 0.000000e+00
  %11 = fcmp nsz ogt float %10, 1.000000e+00
  %..i = select nsz i1 %11, float 1.000000e+00, float %10
  %12 = sitofp i32 %3 to float
  %13 = fmul nsz float %..i, %12
  %14 = tail call i64 @llvm.lrint.i64.f32(float %13)
  %15 = sub nsw i64 0, %14
  %16 = select i1 %4, i64 %14, i64 %15
  %17 = trunc i64 %16 to i32
  %18 = add i32 %3, %17
  ret i32 %18
}